target datalayout = "e-m:e-p270:32:32-p271:32:32-p272:64:64-i64:64-i128:128-f80:128-n8:16:32:64-S128"
target triple = "x86_64-pc-linux-gnu"

@hf_ieee1905_wifi_7_agent_capabilities_radio_record_id = internal global i32 0, align 4
@hf_ieee1905_wifi_7_agent_capabilities_radio_record_flags = internal global i32 0, align 4
@ett_wifi_7_agent_capabilities_radio_record_list = internal global i32 0, align 4
@ett_wifi_7_agent_capabilities_radio_record = internal global i32 0, align 4
@ett_wifi_7_agent_capabilities_radio_record_flags = internal global i32 0, align 4
@.str.2023 = private unnamed_addr constant [10 x i8] c"Record %u\00", align 1
@wifi_7_agent_capabilities_radio_record_flags_headers = internal constant [3 x ptr] [ptr @hf_ieee1905_wifi_7_agent_capabilities_radio_record_flags_freq_separation, ptr @hf_ieee1905_wifi_7_agent_capabilities_radio_record_flags_reserved, ptr null], align 16

; Function Attrs: null_pointer_is_valid sspstrong uwtable
define internal i32 @wifi_7_agent_cap_add_record(ptr noundef %0, i32 noundef %1, ptr noundef %2, ptr noundef %3, i32 noundef %4) #0 {
  %6 = alloca i32, align 4
  %7 = alloca ptr, align 8
  %8 = alloca i32, align 4
  %9 = alloca ptr, align 8
  %10 = alloca ptr, align 8
  %11 = alloca i32, align 4
  %12 = alloca ptr, align 8
  %13 = alloca ptr, align 8
  %14 = alloca i32, align 4
  %15 = alloca i32, align 4
  %16 = alloca i32, align 4
  %17 = alloca i32, align 4
  %18 = alloca ptr, align 8
  %19 = alloca ptr, align 8
  store ptr %0, ptr %7, align 8
  store i32 %1, ptr %8, align 4
  store ptr %2, ptr %9, align 8
  store ptr %3, ptr %10, align 8
  store i32 %4, ptr %11, align 4
  call void @llvm.lifetime.start.p0(i64 8, ptr %12) #12
  store ptr null, ptr %12, align 8
  call void @llvm.lifetime.start.p0(i64 8, ptr %13) #12
  store ptr null, ptr %13, align 8
  call void @llvm.lifetime.start.p0(i64 4, ptr %14) #12
  store i32 0, ptr %14, align 4
  call void @llvm.lifetime.start.p0(i64 4, ptr %15) #12
  store i32 0, ptr %15, align 4
  call void @llvm.lifetime.start.p0(i64 4, ptr %16) #12
  store i32 0, ptr %16, align 4
  %20 = load ptr, ptr %7, align 8
  %21 = load i32, ptr %8, align 4
  %22 = load ptr, ptr %9, align 8
  %23 = load i32, ptr %11, align 4
  %24 = call ptr @proto_tree_add_item_ret_uint(ptr noundef %20, i32 noundef %21, ptr noundef %22, i32 noundef %23, i32 noundef 1, i32 noundef 0, ptr noundef %14)
  %25 = load i32, ptr %11, align 4
  %26 = add i32 %25, 1
  store i32 %26, ptr %11, align 4
  %27 = load i32, ptr %14, align 4
  %28 = icmp eq i32 %27, 0
  br i1 %28, label %29, label %31

29:                                               ; preds = %5
  %30 = load i32, ptr %11, align 4
  store i32 %30, ptr %6, align 4
  store i32 1, ptr %17, align 4
  br label %73

31:                                               ; preds = %5
  %32 = load ptr, ptr %7, align 8
  %33 = load ptr, ptr %9, align 8
  %34 = load i32, ptr %11, align 4
  %35 = load i32, ptr @ett_wifi_7_agent_capabilities_radio_record_list, align 4
  %36 = load ptr, ptr %10, align 8
  %37 = call ptr @proto_tree_add_subtree(ptr noundef %32, ptr noundef %33, i32 noundef %34, i32 noundef -1, i32 noundef %35, ptr noundef %13, ptr noundef %36)
  store ptr %37, ptr %12, align 8
  %38 = load i32, ptr %11, align 4
  store i32 %38, ptr %16, align 4
  br label %39

39:                                               ; preds = %43, %31
  %40 = load i32, ptr %15, align 4
  %41 = load i32, ptr %14, align 4
  %42 = icmp ult i32 %40, %41
  br i1 %42, label %43, label %67

43:                                               ; preds = %39
  call void @llvm.lifetime.start.p0(i64 8, ptr %18) #12
  store ptr null, ptr %18, align 8
  call void @llvm.lifetime.start.p0(i64 8, ptr %19) #12
  store ptr null, ptr %19, align 8
  %44 = load ptr, ptr %12, align 8
  %45 = load ptr, ptr %9, align 8
  %46 = load i32, ptr %11, align 4
  %47 = load i32, ptr @ett_wifi_7_agent_capabilities_radio_record, align 4
  %48 = load i32, ptr %15, align 4
  %49 = call ptr (ptr, ptr, i32, i32, i32, ptr, ptr, ...) @proto_tree_add_subtree_format(ptr noundef %44, ptr noundef %45, i32 noundef %46, i32 noundef -1, i32 noundef %47, ptr noundef %19, ptr noundef @.str.2023, i32 noundef %48)
  store ptr %49, ptr %18, align 8
  %50 = load ptr, ptr %18, align 8
  %51 = load i32, ptr @hf_ieee1905_wifi_7_agent_capabilities_radio_record_id, align 4
  %52 = load ptr, ptr %9, align 8
  %53 = load i32, ptr %11, align 4
  %54 = call ptr @proto_tree_add_item(ptr noundef %50, i32 noundef %51, ptr noundef %52, i32 noundef %53, i32 noundef 6, i32 noundef 0)
  %55 = load i32, ptr %11, align 4
  %56 = add i32 %55, 6
  store i32 %56, ptr %11, align 4
  %57 = load ptr, ptr %18, align 8
  %58 = load ptr, ptr %9, align 8
  %59 = load i32, ptr %11, align 4
  %60 = load i32, ptr @hf_ieee1905_wifi_7_agent_capabilities_radio_record_flags, align 4
  %61 = load i32, ptr @ett_wifi_7_agent_capabilities_radio_record_flags, align 4
  %62 = call ptr @proto_tree_add_bitmask(ptr noundef %57, ptr noundef %58, i32 noundef %59, i32 noundef %60, i32 noundef %61, ptr noundef @wifi_7_agent_capabilities_radio_record_flags_headers, i32 noundef 0)
  %63 = load i32, ptr %11, align 4
  %64 = add i32 %63, 1
  store i32 %64, ptr %11, align 4
  %65 = load i32, ptr %15, align 4
  %66 = add i32 %65, 1
  store i32 %66, ptr %15, align 4
  call void @llvm.lifetime.end.p0(i64 8, ptr %19) #12
  call void @llvm.lifetime.end.p0(i64 8, ptr %18) #12
  br label %39, !llvm.loop !100

67:                                               ; preds = %39
  %68 = load ptr, ptr %13, align 8
  %69 = load i32, ptr %11, align 4
  %70 = load i32, ptr %16, align 4
  %71 = sub i32 %69, %70
  call void @proto_item_set_len(ptr noundef %68, i32 noundef %71)
  %72 = load i32, ptr %11, align 4
  store i32 %72, ptr %6, align 4
  store i32 1, ptr %17, align 4
  br label %73

73:                                               ; preds = %67, %29
  call void @llvm.lifetime.end.p0(i64 4, ptr %16) #12
  call void @llvm.lifetime.end.p0(i64 4, ptr %15) #12
  call void @llvm.lifetime.end.p0(i64 4, ptr %14) #12
  call void @llvm.lifetime.end.p0(i64 8, ptr %13) #12
  call void @llvm.lifetime.end.p0(i64 8, ptr %12) #12
  %74 = load i32, ptr %6, align 4
  ret i32 %74
}