; Function Attrs: null_pointer_is_valid sspstrong uwtable
define internal fastcc noundef i32 @wifi_7_agent_cap_add_record(ptr noundef %0, i32 noundef %1, ptr noundef %2, ptr noundef %3, i32 noundef %4) unnamed_addr #0 {
  %6 = alloca ptr, align 8
  %7 = alloca i32, align 4
  %8 = alloca ptr, align 8
  call void @llvm.lifetime.start.p0(i64 8, ptr nonnull %6) #15
  store ptr null, ptr %6, align 8
  call void @llvm.lifetime.start.p0(i64 4, ptr nonnull %7) #15
  store i32 0, ptr %7, align 4
  %9 = call ptr @proto_tree_add_item_ret_uint(ptr noundef %0, i32 noundef %1, ptr noundef %2, i32 noundef %4, i32 noundef 1, i32 noundef 0, ptr noundef nonnull %7)
  %10 = add i32 %4, 1
  %11 = load i32, ptr %7, align 4
  %12 = icmp eq i32 %11, 0
  br i1 %12, label %31, label %13

13:                                               ; preds = %5
  %14 = load i32, ptr @ett_wifi_7_agent_capabilities_radio_record_list, align 4
  %15 = call ptr @proto_tree_add_subtree(ptr noundef %0, ptr noundef %2, i32 noundef %10, i32 noundef -1, i32 noundef %14, ptr noundef nonnull %6, ptr noundef %3)
  %16 = load i32, ptr %7, align 4
  %.not = icmp eq i32 %16, 0
  br i1 %.not, label %._crit_edge, label %.lr.ph

.lr.ph:                                           ; preds = %13, %.lr.ph
  %.02831 = phi i32 [ %26, %.lr.ph ], [ 0, %13 ]
  %.02930 = phi i32 [ %25, %.lr.ph ], [ %10, %13 ]
  call void @llvm.lifetime.start.p0(i64 8, ptr nonnull %8) #15
  store ptr null, ptr %8, align 8
  %17 = load i32, ptr @ett_wifi_7_agent_capabilities_radio_record, align 4
  %18 = call ptr (ptr, ptr, i32, i32, i32, ptr, ptr, ...) @proto_tree_add_subtree_format(ptr noundef %15, ptr noundef %2, i32 noundef %.02930, i32 noundef -1, i32 noundef %17, ptr noundef nonnull %8, ptr noundef nonnull @.str.2023, i32 noundef %.02831)
  %19 = load i32, ptr @hf_ieee1905_wifi_7_agent_capabilities_radio_record_id, align 4
  %20 = call ptr @proto_tree_add_item(ptr noundef %18, i32 noundef %19, ptr noundef %2, i32 noundef %.02930, i32 noundef 6, i32 noundef 0)
  %21 = add i32 %.02930, 6
  %22 = load i32, ptr @hf_ieee1905_wifi_7_agent_capabilities_radio_record_flags, align 4
  %23 = load i32, ptr @ett_wifi_7_agent_capabilities_radio_record_flags, align 4
  %24 = call ptr @proto_tree_add_bitmask(ptr noundef %18, ptr noundef %2, i32 noundef %21, i32 noundef %22, i32 noundef %23, ptr noundef nonnull @wifi_7_agent_capabilities_radio_record_flags_headers, i32 noundef 0)
  %25 = add i32 %.02930, 7
  %26 = add nuw i32 %.02831, 1
  call void @llvm.lifetime.end.p0(i64 8, ptr nonnull %8) #15
  %27 = load i32, ptr %7, align 4
  %28 = icmp ult i32 %26, %27
  br i1 %28, label %.lr.ph, label %._crit_edge, !llvm.loop !111

._crit_edge:                                      ; preds = %.lr.ph, %13
  %.029.lcssa = phi i32 [ %10, %13 ], [ %25, %.lr.ph ]
  %29 = load ptr, ptr %6, align 8
  %30 = sub i32 %.029.lcssa, %10
  call void @proto_item_set_len(ptr noundef %29, i32 noundef %30)
  br label %31

31:                                               ; preds = %5, %._crit_edge
  %.0 = phi i32 [ %.029.lcssa, %._crit_edge ], [ %10, %5 ]
  call void @llvm.lifetime.end.p0(i64 4, ptr nonnull %7) #15
  call void @llvm.lifetime.end.p0(i64 8, ptr nonnull %6) #15
  ret i32 %.0
}